; Function Attrs: mustprogress nounwind uwtable
define dso_local void @_ZN4node10BaseObject17decrease_refcountEv(ptr noundef nonnull align 8 dereferenceable(32) %this) local_unnamed_addr #3 align 2 {
entry:
  %pointer_data_.i = getelementptr inbounds i8, ptr %this, i64 24
  %0 = load ptr, ptr %pointer_data_.i, align 8
  %cmp.i4.not = icmp eq ptr %0, null
  br i1 %cmp.i4.not, label %do.body4, label %_ZN4node10BaseObject12pointer_dataEv.exit

do.body4:                                         ; preds = %entry
  tail call void @_ZN4node6AssertERKNS_13AssertionInfoE(ptr noundef nonnull align 8 dereferenceable(24) @_ZZN4node10BaseObject17decrease_refcountEvE4args) #17
  tail call void @abort() #18
  unreachable

_ZN4node10BaseObject12pointer_dataEv.exit:        ; preds = %entry
  %1 = load i32, ptr %0, align 8
  %cmp.not = icmp eq i32 %1, 0
  br i1 %cmp.not, label %do.body12, label %do.end15

do.body12:                                        ; preds = %_ZN4node10BaseObject12pointer_dataEv.exit
  tail call void @_ZN4node6AssertERKNS_13AssertionInfoE(ptr noundef nonnull align 8 dereferenceable(24) @_ZZN4node10BaseObject17decrease_refcountEvE4args_0) #17
  tail call void @abort() #18
  unreachable

do.end15:                                         ; preds = %_ZN4node10BaseObject12pointer_dataEv.exit
  %dec = add i32 %1, -1
  store i32 %dec, ptr %0, align 8
  %cmp17 = icmp eq i32 %dec, 0
  br i1 %cmp17, label %if.then18, label %if.end25

if.then18:                                        ; preds = %do.end15
  %is_detached = getelementptr inbounds i8, ptr %0, i64 9
  %2 = load i8, ptr %is_detached, align 1
  %3 = and i8 %2, 1
  %tobool.not = icmp eq i8 %3, 0
  br i1 %tobool.not, label %if.else, label %if.then19

if.then19:                                        ; preds = %if.then18
  %vtable = load ptr, ptr %this, align 8
  %vfn = getelementptr inbounds i8, ptr %vtable, i64 120
  %4 = load ptr, ptr %vfn, align 8
  tail call void %4(ptr noundef nonnull align 8 dereferenceable(32) %this) #17
  br label %if.end25

if.else:                                          ; preds = %if.then18
  %wants_weak_jsobj = getelementptr inbounds i8, ptr %0, i64 8
  %5 = load i8, ptr %wants_weak_jsobj, align 8
  %6 = and i8 %5, 1
  %tobool20.not = icmp eq i8 %6, 0
  %persistent_handle_ = getelementptr inbounds i8, ptr %this, i64 8
  %7 = load ptr, ptr %persistent_handle_, align 8
  %cmp.i = icmp eq ptr %7, null
  %or.cond = select i1 %tobool20.not, i1 true, i1 %cmp.i
  br i1 %or.cond, label %if.end25, label %if.then22

if.then22:                                        ; preds = %if.else
  %8 = load ptr, ptr %pointer_data_.i, align 8
  %cmp.i.not.i = icmp eq ptr %8, null
  br i1 %cmp.i.not.i, label %if.end5.i, label %_ZN4node10BaseObject12pointer_dataEv.exit.i

_ZN4node10BaseObject12pointer_dataEv.exit.i:      ; preds = %if.then22
  %wants_weak_jsobj.i6 = getelementptr inbounds i8, ptr %8, i64 8
  store i8 1, ptr %wants_weak_jsobj.i6, align 8
  %9 = load ptr, ptr %pointer_data_.i, align 8
  %cmp.i3.not.i2.i = icmp eq ptr %9, null
  br i1 %cmp.i3.not.i2.i, label %if.then.i3.i, label %_ZN4node10BaseObject12pointer_dataEv.exit14.i

if.then.i3.i:                                     ; preds = %_ZN4node10BaseObject12pointer_dataEv.exit.i
  %call2.i4.i = tail call noalias noundef nonnull dereferenceable(24) ptr @_Znwm(i64 noundef 24) #20
  %self.i.i5.i = getelementptr inbounds i8, ptr %call2.i4.i, i64 16
  tail call void @llvm.memset.p0.i64(ptr noundef nonnull align 8 dereferenceable(16) %call2.i4.i, i8 0, i64 16, i1 false)
  %10 = load ptr, ptr %persistent_handle_, align 8
  %cmp.i.i.i7.i = icmp eq ptr %10, null
  br i1 %cmp.i.i.i7.i, label %_ZN4node10BaseObject12pointer_dataEv.exit14.thread.i, label %if.end.i.i8.i

if.end.i.i8.i:                                    ; preds = %if.then.i3.i
  %add.ptr.i.i9.i = getelementptr inbounds i8, ptr %10, i64 11
  %11 = load i8, ptr %add.ptr.i.i9.i, align 1
  %12 = and i8 %11, 3
  %cmp.i.i10.i = icmp eq i8 %12, 2
  %13 = zext i1 %cmp.i.i10.i to i8
  br label %_ZN4node10BaseObject12pointer_dataEv.exit14.thread.i

_ZN4node10BaseObject12pointer_dataEv.exit14.thread.i: ; preds = %if.end.i.i8.i, %if.then.i3.i
  %retval.i.0.i12.i = phi i8 [ %13, %if.end.i.i8.i ], [ 0, %if.then.i3.i ]
  %wants_weak_jsobj.i13.i = getelementptr inbounds i8, ptr %call2.i4.i, i64 8
  store i8 %retval.i.0.i12.i, ptr %wants_weak_jsobj.i13.i, align 8
  store ptr %this, ptr %self.i.i5.i, align 8
  store ptr %call2.i4.i, ptr %pointer_data_.i, align 8
  br label %if.end5.i

_ZN4node10BaseObject12pointer_dataEv.exit14.i:    ; preds = %_ZN4node10BaseObject12pointer_dataEv.exit.i
  %.pre.i = load i32, ptr %9, align 8
  %14 = icmp eq i32 %.pre.i, 0
  br i1 %14, label %_ZN4node10BaseObject12pointer_dataEv.exit14.i.if.end5.i_crit_edge, label %if.end25

_ZN4node10BaseObject12pointer_dataEv.exit14.i.if.end5.i_crit_edge: ; preds = %_ZN4node10BaseObject12pointer_dataEv.exit14.i
  %.pre = load ptr, ptr %persistent_handle_, align 8
  br label %if.end5.i

if.end5.i:                                        ; preds = %_ZN4node10BaseObject12pointer_dataEv.exit14.i.if.end5.i_crit_edge, %_ZN4node10BaseObject12pointer_dataEv.exit14.thread.i, %if.then22
  %15 = phi ptr [ %.pre, %_ZN4node10BaseObject12pointer_dataEv.exit14.i.if.end5.i_crit_edge ], [ %10, %_ZN4node10BaseObject12pointer_dataEv.exit14.thread.i ], [ %7, %if.then22 ]
  tail call void @_ZN2v812api_internal8MakeWeakEPmPvPFvRKNS_16WeakCallbackInfoIvEEENS_16WeakCallbackTypeE(ptr noundef %15, ptr noundef nonnull %this, ptr noundef nonnull @"_ZZN4node10BaseObject8MakeWeakEvEN3$_08__invokeERKN2v816WeakCallbackInfoIS0_EE", i32 noundef 0) #17
  br label %if.end25

if.end25:                                         ; preds = %if.end5.i, %_ZN4node10BaseObject12pointer_dataEv.exit14.i, %if.then19, %if.else, %do.end15
  ret void
}